target datalayout = "e-m:e-p270:32:32-p271:32:32-p272:64:64-i64:64-i128:128-f80:128-n8:16:32:64-S128"
target triple = "x86_64-pc-linux-gnu"

@hf_h221Manufacturer = internal global i32 0, align 4
@ett_h225_H221NonStandard = internal global i32 0, align 4
@h221NonStandard = internal global i32 0, align 4
@t35CountryCode = internal global i32 0, align 4
@t35Extension = internal global i32 0, align 4
@manufacturerCode = internal global i32 0, align 4

; Function Attrs: null_pointer_is_valid sspstrong uwtable
define internal i32 @dissect_h225_H221NonStandard(ptr noundef %0, i32 noundef %1, ptr noundef %2, ptr noundef %3, i32 noundef %4) #0 {
  %6 = alloca ptr, align 8
  %7 = alloca i32, align 4
  %8 = alloca ptr, align 8
  %9 = alloca ptr, align 8
  %10 = alloca i32, align 4
  store ptr %0, ptr %6, align 8
  store i32 %1, ptr %7, align 4
  store ptr %2, ptr %8, align 8
  store ptr %3, ptr %9, align 8
  store i32 %4, ptr %10, align 4
  store i32 0, ptr @t35CountryCode, align 4
  store i32 0, ptr @t35Extension, align 4
  store i32 0, ptr @manufacturerCode, align 4
  %11 = load ptr, ptr %6, align 8
  %12 = load i32, ptr %7, align 4
  %13 = load ptr, ptr %8, align 8
  %14 = load ptr, ptr %9, align 8
  %15 = load i32, ptr %10, align 4
  %16 = load i32, ptr @ett_h225_H221NonStandard, align 4
  %17 = call i32 @dissect_per_sequence(ptr noundef %11, i32 noundef %12, ptr noundef %13, ptr noundef %14, i32 noundef %15, i32 noundef %16, ptr noundef @H221NonStandard_sequence)
  store i32 %17, ptr %7, align 4
  %18 = load i32, ptr @t35CountryCode, align 4
  %19 = mul i32 %18, 256
  %20 = load i32, ptr @t35Extension, align 4
  %21 = add i32 %19, %20
  %22 = mul i32 %21, 65536
  %23 = load i32, ptr @manufacturerCode, align 4
  %24 = add i32 %22, %23
  store i32 %24, ptr @h221NonStandard, align 4
  %25 = load ptr, ptr %9, align 8
  %26 = load i32, ptr @hf_h221Manufacturer, align 4
  %27 = load ptr, ptr %6, align 8
  %28 = load i32, ptr %7, align 4
  %29 = ashr i32 %28, 3
  %30 = sub i32 %29, 4
  %31 = load i32, ptr @h221NonStandard, align 4
  %32 = call ptr @proto_tree_add_uint(ptr noundef %25, i32 noundef %26, ptr noundef %27, i32 noundef %30, i32 noundef 4, i32 noundef %31)
  %33 = load i32, ptr %7, align 4
  ret i32 %33
}