; Function Attrs: null_pointer_is_valid sspstrong uwtable
define internal i32 @dissect_h225_H221NonStandard(ptr noundef %0, i32 noundef %1, ptr noundef %2, ptr noundef %3, i32 noundef %4) #0 {
  store i32 0, ptr @t35CountryCode, align 4
  store i32 0, ptr @t35Extension, align 4
  store i32 0, ptr @manufacturerCode, align 4
  %6 = load i32, ptr @ett_h225_H221NonStandard, align 4
  %7 = tail call i32 @dissect_per_sequence(ptr noundef %0, i32 noundef %1, ptr noundef %2, ptr noundef %3, i32 noundef %4, i32 noundef %6, ptr noundef nonnull @H221NonStandard_sequence)
  %8 = load i32, ptr @t35CountryCode, align 4
  %9 = load i32, ptr @t35Extension, align 4
  %10 = shl i32 %8, 24
  %11 = shl i32 %9, 16
  %12 = add i32 %11, %10
  %13 = load i32, ptr @manufacturerCode, align 4
  %14 = add i32 %12, %13
  store i32 %14, ptr @h221NonStandard, align 4
  %15 = load i32, ptr @hf_h221Manufacturer, align 4
  %16 = ashr i32 %7, 3
  %17 = add nsw i32 %16, -4
  %18 = tail call ptr @proto_tree_add_uint(ptr noundef %3, i32 noundef %15, ptr noundef %0, i32 noundef %17, i32 noundef 4, i32 noundef %14)
  ret i32 %7
}